(S'BGM/1-16.ogg'
p0
S''
p1
(dp2
S'sanae1.png'
p3
(dp4
S'clip_pos'
p5
(I600
I600
tp6
sS'screen_pos'
p7
(I0
I0
tp8
sS'name'
p9
g3
sS'size'
p10
(I300
I300
tp11
ssS'sanae.png'
p12
(dp13
g5
(I600
I600
tp14
sg7
(I200
I200
tp15
sg9
g12
sg10
(I200
I200
tp16
sstp17
.